target datalayout = "e-m:e-p270:32:32-p271:32:32-p272:64:64-i64:64-i128:128-f80:128-n8:16:32:64-S128"
target triple = "x86_64-pc-linux-gnu"

; Function Attrs: nounwind uwtable
define internal void @lsys_unloadlib(ptr noundef %0) #0 {
  %2 = alloca ptr, align 8
  store ptr %0, ptr %2, align 8, !tbaa !11
  %3 = load ptr, ptr %2, align 8, !tbaa !11
  %4 = call i32 @dlclose(ptr noundef %3) #6
  ret void
}

; Function Attrs: nounwind uwtable
define internal i32 @gctm(ptr noundef %0) #0 {
  %2 = alloca ptr, align 8
  %3 = alloca i64, align 8
  store ptr %0, ptr %2, align 8, !tbaa !4
  call void @llvm.lifetime.start.p0(i64 8, ptr %3) #6
  %4 = load ptr, ptr %2, align 8, !tbaa !4
  %5 = call i64 @luaL_len(ptr noundef %4, i32 noundef 1)
  store i64 %5, ptr %3, align 8, !tbaa !21
  br label %6

6:                                                ; preds = %16, %1
  %7 = load i64, ptr %3, align 8, !tbaa !21
  %8 = icmp sge i64 %7, 1
  br i1 %8, label %9, label %19

9:                                                ; preds = %6
  %10 = load ptr, ptr %2, align 8, !tbaa !4
  %11 = load i64, ptr %3, align 8, !tbaa !21
  %12 = call i32 @lua_rawgeti(ptr noundef %10, i32 noundef 1, i64 noundef %11)
  %13 = load ptr, ptr %2, align 8, !tbaa !4
  %14 = call ptr @lua_touserdata(ptr noundef %13, i32 noundef -1)
  call void @lsys_unloadlib(ptr noundef %14)
  %15 = load ptr, ptr %2, align 8, !tbaa !4
  call void @lua_settop(ptr noundef %15, i32 noundef -2)
  br label %16

16:                                               ; preds = %9
  %17 = load i64, ptr %3, align 8, !tbaa !21
  %18 = add nsw i64 %17, -1
  store i64 %18, ptr %3, align 8, !tbaa !21
  br label %6

19:                                               ; preds = %6
  call void @llvm.lifetime.end.p0(i64 8, ptr %3) #6
  ret i32 0
}