; Function Attrs: nounwind uwtable
define internal noundef i32 @gctm(ptr noundef %0) #0 {
  %2 = tail call i64 @luaL_len(ptr noundef %0, i32 noundef 1) #7
  %3 = icmp sgt i64 %2, 0
  br i1 %3, label %.lr.ph, label %._crit_edge

.lr.ph:                                           ; preds = %1, %.lr.ph
  %.06 = phi i64 [ %7, %.lr.ph ], [ %2, %1 ]
  %4 = tail call i32 @lua_rawgeti(ptr noundef %0, i32 noundef 1, i64 noundef %.06) #7
  %5 = tail call ptr @lua_touserdata(ptr noundef %0, i32 noundef -1) #7
  %6 = tail call i32 @dlclose(ptr noundef %5) #7
  tail call void @lua_settop(ptr noundef %0, i32 noundef -2) #7
  %7 = add nsw i64 %.06, -1
  %8 = icmp samesign ugt i64 %.06, 1
  br i1 %8, label %.lr.ph, label %._crit_edge

._crit_edge:                                      ; preds = %.lr.ph, %1
  ret i32 0
}